target datalayout = "e-m:e-p270:32:32-p271:32:32-p272:64:64-i64:64-i128:128-f80:128-n8:16:32:64-S128"
target triple = "x86_64-pc-linux-gnu"

%struct.ResourceOwnerDesc = type { ptr, i32, i32, ptr, ptr }
%struct.vfd = type { i32, i16, ptr, i32, i32, i32, i64, ptr, i32, i32 }

@.str.1 = private unnamed_addr constant [5 x i8] c"fd.c\00", align 1
@VfdCache = internal global ptr null, align 8
@pg_file_create_mode = external global i32, align 4
@CurrentResourceOwner = external global ptr, align 8
@.str.20 = private unnamed_addr constant [41 x i8] c"could not create temporary file \22%s\22: %m\00", align 1
@__func__.PathNameCreateTemporaryFile = private unnamed_addr constant [28 x i8] c"PathNameCreateTemporaryFile\00", align 1
@have_xact_temporary_files = internal global i8 0, align 1
@file_resowner_desc = internal constant %struct.ResourceOwnerDesc { ptr @.str.52, i32 3, i32 600, ptr @ResOwnerReleaseFile, ptr @ResOwnerPrintFile }, align 8

; Function Attrs: inlinehint nounwind uwtable
define internal i64 @Int32GetDatum(i32 noundef %0) #9 {
  %2 = alloca i32, align 4
  store i32 %0, ptr %2, align 4
  %3 = load i32, ptr %2, align 4
  %4 = sext i32 %3 to i64
  ret i64 %4
}

; Function Attrs: inlinehint nounwind uwtable
define internal void @ResourceOwnerRememberFile(ptr noundef %0, i32 noundef %1) #9 {
  %3 = alloca ptr, align 8
  %4 = alloca i32, align 4
  store ptr %0, ptr %3, align 8
  store i32 %1, ptr %4, align 4
  %5 = load ptr, ptr %3, align 8
  %6 = load i32, ptr %4, align 4
  %7 = call i64 @Int32GetDatum(i32 noundef %6)
  call void @ResourceOwnerRemember(ptr noundef %5, i64 noundef %7, ptr noundef @file_resowner_desc)
  ret void
}

; Function Attrs: nounwind uwtable
define internal void @RegisterTemporaryFile(i32 noundef %0) #0 {
  %2 = alloca i32, align 4
  store i32 %0, ptr %2, align 4
  %3 = load ptr, ptr @CurrentResourceOwner, align 8
  %4 = load i32, ptr %2, align 4
  call void @ResourceOwnerRememberFile(ptr noundef %3, i32 noundef %4)
  %5 = load ptr, ptr @CurrentResourceOwner, align 8
  %6 = load ptr, ptr @VfdCache, align 8
  %7 = load i32, ptr %2, align 4
  %8 = sext i32 %7 to i64
  %9 = getelementptr inbounds %struct.vfd, ptr %6, i64 %8
  %10 = getelementptr inbounds nuw %struct.vfd, ptr %9, i32 0, i32 2
  store ptr %5, ptr %10, align 8
  %11 = load ptr, ptr @VfdCache, align 8
  %12 = load i32, ptr %2, align 4
  %13 = sext i32 %12 to i64
  %14 = getelementptr inbounds %struct.vfd, ptr %11, i64 %13
  %15 = getelementptr inbounds nuw %struct.vfd, ptr %14, i32 0, i32 1
  %16 = load i16, ptr %15, align 4
  %17 = zext i16 %16 to i32
  %18 = or i32 %17, 2
  %19 = trunc i32 %18 to i16
  store i16 %19, ptr %15, align 4
  store i8 1, ptr @have_xact_temporary_files, align 1
  ret void
}

; Function Attrs: nounwind uwtable
define dso_local i32 @PathNameOpenFile(ptr noundef %0, i32 noundef %1) #0 {
  %3 = alloca ptr, align 8
  %4 = alloca i32, align 4
  store ptr %0, ptr %3, align 8
  store i32 %1, ptr %4, align 4
  %5 = load ptr, ptr %3, align 8
  %6 = load i32, ptr %4, align 4
  %7 = load i32, ptr @pg_file_create_mode, align 4
  %8 = call i32 @PathNameOpenFilePerm(ptr noundef %5, i32 noundef %6, i32 noundef %7)
  ret i32 %8
}

; Function Attrs: nounwind uwtable
define dso_local i32 @PathNameCreateTemporaryFile(ptr noundef %0, i1 noundef zeroext %1) #0 {
  %3 = alloca i32, align 4
  %4 = alloca ptr, align 8
  %5 = alloca i8, align 1
  %6 = alloca i32, align 4
  %7 = alloca i32, align 4
  store ptr %0, ptr %4, align 8
  %8 = zext i1 %1 to i8
  store i8 %8, ptr %5, align 1
  call void @llvm.lifetime.start.p0(i64 4, ptr %6) #14
  %9 = load ptr, ptr @CurrentResourceOwner, align 8
  call void @ResourceOwnerEnlarge(ptr noundef %9)
  %10 = load ptr, ptr %4, align 8
  %11 = call i32 @PathNameOpenFile(ptr noundef %10, i32 noundef 578)
  store i32 %11, ptr %6, align 4
  %12 = load i32, ptr %6, align 4
  %13 = icmp sle i32 %12, 0
  br i1 %13, label %14, label %33

14:                                               ; preds = %2
  %15 = load i8, ptr %5, align 1, !range !4, !noundef !5
  %16 = trunc i8 %15 to i1
  br i1 %16, label %17, label %30

17:                                               ; preds = %14
  br label %18

18:                                               ; preds = %17
  br i1 true, label %19, label %21

19:                                               ; preds = %18
  %20 = call zeroext i1 @errstart_cold(i32 noundef 21, ptr noundef null) #16
  br i1 %20, label %23, label %27

21:                                               ; preds = %18
  %22 = call zeroext i1 @errstart(i32 noundef 21, ptr noundef null)
  br i1 %22, label %23, label %27

23:                                               ; preds = %21, %19
  %24 = call i32 @errcode_for_file_access()
  %25 = load ptr, ptr %4, align 8
  %26 = call i32 (ptr, ...) @errmsg(ptr noundef @.str.20, ptr noundef %25)
  call void @errfinish(ptr noundef @.str.1, i32 noundef 1879, ptr noundef @__func__.PathNameCreateTemporaryFile)
  br label %27

27:                                               ; preds = %23, %21, %19
  unreachable

28:                                               ; No predecessors!
  br label %29

29:                                               ; preds = %28
  br label %32

30:                                               ; preds = %14
  %31 = load i32, ptr %6, align 4
  store i32 %31, ptr %3, align 4
  store i32 1, ptr %7, align 4
  br label %45

32:                                               ; preds = %29
  br label %33

33:                                               ; preds = %32, %2
  %34 = load ptr, ptr @VfdCache, align 8
  %35 = load i32, ptr %6, align 4
  %36 = sext i32 %35 to i64
  %37 = getelementptr inbounds %struct.vfd, ptr %34, i64 %36
  %38 = getelementptr inbounds nuw %struct.vfd, ptr %37, i32 0, i32 1
  %39 = load i16, ptr %38, align 4
  %40 = zext i16 %39 to i32
  %41 = or i32 %40, 4
  %42 = trunc i32 %41 to i16
  store i16 %42, ptr %38, align 4
  %43 = load i32, ptr %6, align 4
  call void @RegisterTemporaryFile(i32 noundef %43)
  %44 = load i32, ptr %6, align 4
  store i32 %44, ptr %3, align 4
  store i32 1, ptr %7, align 4
  br label %45

45:                                               ; preds = %33, %30
  call void @llvm.lifetime.end.p0(i64 4, ptr %6) #14
  %46 = load i32, ptr %3, align 4
  ret i32 %46
}