; Function Attrs: nounwind uwtable
define dso_local i32 @PathNameCreateTemporaryFile(ptr noundef %0, i1 noundef zeroext %1) local_unnamed_addr #0 {
  %3 = load ptr, ptr @CurrentResourceOwner, align 8
  tail call void @ResourceOwnerEnlarge(ptr noundef %3) #25
  %4 = load i32, ptr @pg_file_create_mode, align 4
  %5 = tail call i32 @PathNameOpenFilePerm(ptr noundef readonly %0, i32 noundef 578, i32 noundef %4)
  %6 = icmp slt i32 %5, 1
  br i1 %6, label %7, label %12

7:                                                ; preds = %2
  br i1 %1, label %8, label %25

8:                                                ; preds = %7
  %9 = tail call zeroext i1 @errstart_cold(i32 noundef 21, ptr noundef null) #27
  tail call void @llvm.assume(i1 %9)
  %10 = tail call i32 @errcode_for_file_access() #25
  %11 = tail call i32 (ptr, ...) @errmsg(ptr noundef nonnull @.str.20, ptr noundef %0) #25
  tail call void @errfinish(ptr noundef nonnull @.str.1, i32 noundef 1879, ptr noundef nonnull @__func__.PathNameCreateTemporaryFile) #25
  unreachable

12:                                               ; preds = %2
  %13 = load ptr, ptr @VfdCache, align 8
  %14 = zext nneg i32 %5 to i64
  %15 = getelementptr inbounds nuw %struct.vfd, ptr %13, i64 %14, i32 1
  %16 = load i16, ptr %15, align 4
  %17 = or i16 %16, 4
  store i16 %17, ptr %15, align 4
  %18 = load ptr, ptr @CurrentResourceOwner, align 8
  tail call void @ResourceOwnerRemember(ptr noundef %18, i64 noundef %14, ptr noundef nonnull @file_resowner_desc) #25
  %19 = load ptr, ptr @CurrentResourceOwner, align 8
  %20 = load ptr, ptr @VfdCache, align 8
  %21 = getelementptr inbounds nuw %struct.vfd, ptr %20, i64 %14, i32 2
  store ptr %19, ptr %21, align 8
  %22 = getelementptr inbounds nuw %struct.vfd, ptr %20, i64 %14, i32 1
  %23 = load i16, ptr %22, align 4
  %24 = or i16 %23, 2
  store i16 %24, ptr %22, align 4
  store i1 true, ptr @have_xact_temporary_files, align 1
  br label %25

25:                                               ; preds = %7, %12
  ret i32 %5
}